; Function Attrs: mustprogress nofree norecurse nosync nounwind willreturn memory(argmem: write) uwtable
define hidden void @_ZN10TypeOrigin8implicitE16VerificationType(ptr dead_on_unwind noalias nocapture writable writeonly sret(%class.TypeOrigin) align 8 %0, ptr %1) local_unnamed_addr #5 align 2 {
  store i32 6, ptr %0, align 8
  %3 = getelementptr inbounds i8, ptr %0, i64 4
  store i32 0, ptr %3, align 4
  %4 = getelementptr inbounds i8, ptr %0, i64 8
  store ptr null, ptr %4, align 8
  %5 = getelementptr inbounds i8, ptr %0, i64 16
  store ptr %1, ptr %5, align 8
  ret void
}